target datalayout = "e-m:e-p270:32:32-p271:32:32-p272:64:64-i64:64-i128:128-f80:128-n8:16:32:64-S128"
target triple = "x86_64-pc-linux-gnu"

; Function Attrs: mustprogress nounwind uwtable
define noundef i32 @_ZN6LibRaw8getwordsEPcPS0_ii(ptr noundef %0, ptr noundef %1, i32 noundef %2, i32 noundef %3) #0 align 2 {
  %5 = alloca i32, align 4
  %6 = alloca ptr, align 8
  %7 = alloca ptr, align 8
  %8 = alloca i32, align 4
  %9 = alloca i32, align 4
  %10 = alloca ptr, align 8
  %11 = alloca i32, align 4
  %12 = alloca i32, align 4
  store ptr %0, ptr %6, align 8, !tbaa !10
  store ptr %1, ptr %7, align 8, !tbaa !20
  store i32 %2, ptr %8, align 4, !tbaa !12
  store i32 %3, ptr %9, align 4, !tbaa !12
  %13 = load ptr, ptr %6, align 8, !tbaa !10
  %14 = load i32, ptr %9, align 4, !tbaa !12
  %15 = sub nsw i32 %14, 1
  %16 = sext i32 %15 to i64
  %17 = getelementptr inbounds i8, ptr %13, i64 %16
  store i8 0, ptr %17, align 1, !tbaa !22
  call void @llvm.lifetime.start.p0(i64 8, ptr %10) #18
  %18 = load ptr, ptr %6, align 8, !tbaa !10
  store ptr %18, ptr %10, align 8, !tbaa !10
  call void @llvm.lifetime.start.p0(i64 4, ptr %11) #18
  store i32 0, ptr %11, align 4, !tbaa !12
  br label %19

19:                                               ; preds = %75, %4
  br label %20

20:                                               ; preds = %19
  br label %21

21:                                               ; preds = %27, %20
  %22 = load ptr, ptr %10, align 8, !tbaa !10
  %23 = load i8, ptr %22, align 1, !tbaa !22
  %24 = zext i8 %23 to i32
  %25 = call i32 @isspace(i32 noundef %24) #19
  %26 = icmp ne i32 %25, 0
  br i1 %26, label %27, label %30

27:                                               ; preds = %21
  %28 = load ptr, ptr %10, align 8, !tbaa !10
  %29 = getelementptr inbounds nuw i8, ptr %28, i32 1
  store ptr %29, ptr %10, align 8, !tbaa !10
  br label %21, !llvm.loop !141

30:                                               ; preds = %21
  %31 = load ptr, ptr %10, align 8, !tbaa !10
  %32 = load i8, ptr %31, align 1, !tbaa !22
  %33 = zext i8 %32 to i32
  %34 = icmp eq i32 %33, 0
  br i1 %34, label %35, label %37

35:                                               ; preds = %30
  %36 = load i32, ptr %11, align 4, !tbaa !12
  store i32 %36, ptr %5, align 4
  store i32 1, ptr %12, align 4
  br label %76

37:                                               ; preds = %30
  %38 = load ptr, ptr %10, align 8, !tbaa !10
  %39 = load ptr, ptr %7, align 8, !tbaa !20
  %40 = load i32, ptr %11, align 4, !tbaa !12
  %41 = add nsw i32 %40, 1
  store i32 %41, ptr %11, align 4, !tbaa !12
  %42 = sext i32 %40 to i64
  %43 = getelementptr inbounds ptr, ptr %39, i64 %42
  store ptr %38, ptr %43, align 8, !tbaa !10
  br label %44

44:                                               ; preds = %57, %37
  %45 = load ptr, ptr %10, align 8, !tbaa !10
  %46 = load i8, ptr %45, align 1, !tbaa !22
  %47 = zext i8 %46 to i32
  %48 = call i32 @isspace(i32 noundef %47) #19
  %49 = icmp ne i32 %48, 0
  br i1 %49, label %55, label %50

50:                                               ; preds = %44
  %51 = load ptr, ptr %10, align 8, !tbaa !10
  %52 = load i8, ptr %51, align 1, !tbaa !22
  %53 = zext i8 %52 to i32
  %54 = icmp ne i32 %53, 0
  br label %55

55:                                               ; preds = %50, %44
  %56 = phi i1 [ false, %44 ], [ %54, %50 ]
  br i1 %56, label %57, label %60

57:                                               ; preds = %55
  %58 = load ptr, ptr %10, align 8, !tbaa !10
  %59 = getelementptr inbounds nuw i8, ptr %58, i32 1
  store ptr %59, ptr %10, align 8, !tbaa !10
  br label %44, !llvm.loop !142

60:                                               ; preds = %55
  %61 = load ptr, ptr %10, align 8, !tbaa !10
  %62 = load i8, ptr %61, align 1, !tbaa !22
  %63 = zext i8 %62 to i32
  %64 = icmp eq i32 %63, 0
  br i1 %64, label %65, label %67

65:                                               ; preds = %60
  %66 = load i32, ptr %11, align 4, !tbaa !12
  store i32 %66, ptr %5, align 4
  store i32 1, ptr %12, align 4
  br label %76

67:                                               ; preds = %60
  %68 = load ptr, ptr %10, align 8, !tbaa !10
  %69 = getelementptr inbounds nuw i8, ptr %68, i32 1
  store ptr %69, ptr %10, align 8, !tbaa !10
  store i8 0, ptr %68, align 1, !tbaa !22
  %70 = load i32, ptr %11, align 4, !tbaa !12
  %71 = load i32, ptr %8, align 4, !tbaa !12
  %72 = icmp sge i32 %70, %71
  br i1 %72, label %73, label %75

73:                                               ; preds = %67
  %74 = load i32, ptr %11, align 4, !tbaa !12
  store i32 %74, ptr %5, align 4
  store i32 1, ptr %12, align 4
  br label %76

75:                                               ; preds = %67
  br label %19, !llvm.loop !143

76:                                               ; preds = %73, %65, %35
  call void @llvm.lifetime.end.p0(i64 4, ptr %11) #18
  call void @llvm.lifetime.end.p0(i64 8, ptr %10) #18
  %77 = load i32, ptr %5, align 4
  ret i32 %77
}