; Function Attrs: mustprogress nofree nounwind memory(read, argmem: readwrite) uwtable
define noundef i32 @_ZN6LibRaw8getwordsEPcPS0_ii(ptr noundef %0, ptr noundef writeonly captures(none) %1, i32 noundef %2, i32 noundef %3) local_unnamed_addr #17 align 2 {
  %5 = sext i32 %3 to i64
  %6 = getelementptr i8, ptr %0, i64 %5
  %7 = getelementptr i8, ptr %6, i64 -1
  store i8 0, ptr %7, align 1, !tbaa !23
  %smax = tail call i32 @llvm.smax.i32(i32 %2, i32 1)
  %wide.trip.count = zext nneg i32 %smax to i64
  br label %8

8:                                                ; preds = %23, %4
  %indvars.iv = phi i64 [ %indvars.iv.next, %23 ], [ 0, %4 ]
  %.019 = phi ptr [ %22, %23 ], [ %0, %4 ]
  br label %9

9:                                                ; preds = %9, %8
  %.1 = phi ptr [ %.019, %8 ], [ %13, %9 ]
  %10 = load i8, ptr %.1, align 1, !tbaa !23
  %11 = zext i8 %10 to i32
  %12 = tail call i32 @isspace(i32 noundef %11) #28
  %.not = icmp eq i32 %12, 0
  %13 = getelementptr inbounds nuw i8, ptr %.1, i64 1
  br i1 %.not, label %14, label %9, !llvm.loop !133

14:                                               ; preds = %9
  %15 = icmp eq i8 %10, 0
  br i1 %15, label %.split.loop.exit30, label %16

16:                                               ; preds = %14
  %17 = getelementptr inbounds nuw ptr, ptr %1, i64 %indvars.iv
  store ptr %.1, ptr %17, align 8, !tbaa !11
  br label %18

18:                                               ; preds = %18, %16
  %.2 = phi ptr [ %.1, %16 ], [ %22, %18 ]
  %19 = load i8, ptr %.2, align 1, !tbaa !23
  %20 = zext i8 %19 to i32
  %21 = tail call i32 @isspace(i32 noundef %20) #28
  %.not23 = icmp ne i32 %21, 0
  %.not24 = icmp eq i8 %19, 0
  %or.cond = or i1 %.not24, %.not23
  %22 = getelementptr inbounds nuw i8, ptr %.2, i64 1
  br i1 %or.cond, label %.critedge, label %18, !llvm.loop !134

.critedge:                                        ; preds = %18
  %indvars.iv.next = add nuw nsw i64 %indvars.iv, 1
  br i1 %.not24, label %.split.loop.exit28, label %23

23:                                               ; preds = %.critedge
  store i8 0, ptr %.2, align 1, !tbaa !23
  %exitcond.not = icmp eq i64 %indvars.iv.next, %wide.trip.count
  br i1 %exitcond.not, label %.split.loop.exit, label %8, !llvm.loop !135

.split.loop.exit28:                               ; preds = %.critedge
  %indvars.le = trunc i64 %indvars.iv.next to i32
  br label %.split.loop.exit

.split.loop.exit30:                               ; preds = %14
  %24 = trunc nuw nsw i64 %indvars.iv to i32
  br label %.split.loop.exit

.split.loop.exit:                                 ; preds = %23, %.split.loop.exit30, %.split.loop.exit28
  %.020 = phi i32 [ %indvars.le, %.split.loop.exit28 ], [ %24, %.split.loop.exit30 ], [ %smax, %23 ]
  ret i32 %.020
}